target datalayout = "e-m:e-p270:32:32-p271:32:32-p272:64:64-i64:64-i128:128-f80:128-n8:16:32:64-S128"
target triple = "x86_64-pc-linux-gnu"

%union.pthread_mutex_t = type { %struct.__pthread_mutex_s }
%struct.__pthread_mutex_s = type { i32, i32, i32, i32, i32, i16, i16, %struct.__pthread_internal_list }
%struct.__pthread_internal_list = type { ptr, ptr }
%struct.wolfSSL_RefWithMutex = type { %union.pthread_mutex_t, i32 }
%struct.WOLFSSL_CERT_MANAGER = type { [11 x ptr], ptr, ptr, ptr, ptr, ptr, ptr, ptr, ptr, ptr, ptr, ptr, ptr, %union.pthread_mutex_t, i8, i16, i16, %struct.wolfSSL_RefWithMutex }
%struct.Signer = type { i32, i32, i16, i8, i8, ptr, i32, ptr, ptr, ptr, [20 x i8], [20 x i8], i8, ptr }

; Function Attrs: inlinehint nounwind uwtable
define internal i32 @MakeWordFromHash(ptr noundef %0) #4 {
  %2 = alloca ptr, align 8
  store ptr %0, ptr %2, align 8, !tbaa !21
  %3 = load ptr, ptr %2, align 8, !tbaa !21
  %4 = getelementptr inbounds i8, ptr %3, i64 0
  %5 = load i8, ptr %4, align 1, !tbaa !20
  %6 = zext i8 %5 to i32
  %7 = shl i32 %6, 24
  %8 = load ptr, ptr %2, align 8, !tbaa !21
  %9 = getelementptr inbounds i8, ptr %8, i64 1
  %10 = load i8, ptr %9, align 1, !tbaa !20
  %11 = zext i8 %10 to i32
  %12 = shl i32 %11, 16
  %13 = or i32 %7, %12
  %14 = load ptr, ptr %2, align 8, !tbaa !21
  %15 = getelementptr inbounds i8, ptr %14, i64 2
  %16 = load i8, ptr %15, align 1, !tbaa !20
  %17 = zext i8 %16 to i32
  %18 = shl i32 %17, 8
  %19 = or i32 %13, %18
  %20 = load ptr, ptr %2, align 8, !tbaa !21
  %21 = getelementptr inbounds i8, ptr %20, i64 3
  %22 = load i8, ptr %21, align 1, !tbaa !20
  %23 = zext i8 %22 to i32
  %24 = or i32 %19, %23
  ret i32 %24
}

; Function Attrs: inlinehint nounwind uwtable
define internal i32 @HashSigner(ptr noundef %0) #4 {
  %2 = alloca ptr, align 8
  store ptr %0, ptr %2, align 8, !tbaa !21
  %3 = load ptr, ptr %2, align 8, !tbaa !21
  %4 = call i32 @MakeWordFromHash(ptr noundef %3)
  %5 = urem i32 %4, 11
  ret i32 %5
}

; Function Attrs: nounwind uwtable
define ptr @GetCA(ptr noundef %0, ptr noundef %1) #0 {
  %3 = alloca ptr, align 8
  %4 = alloca ptr, align 8
  %5 = alloca ptr, align 8
  %6 = alloca ptr, align 8
  %7 = alloca ptr, align 8
  %8 = alloca ptr, align 8
  %9 = alloca i32, align 4
  %10 = alloca i32, align 4
  %11 = alloca ptr, align 8
  store ptr %0, ptr %4, align 8, !tbaa !3
  store ptr %1, ptr %5, align 8, !tbaa !21
  call void @llvm.lifetime.start.p0(i64 8, ptr %6) #9
  %12 = load ptr, ptr %4, align 8, !tbaa !3
  store ptr %12, ptr %6, align 8, !tbaa !9
  call void @llvm.lifetime.start.p0(i64 8, ptr %7) #9
  store ptr null, ptr %7, align 8, !tbaa !201
  call void @llvm.lifetime.start.p0(i64 8, ptr %8) #9
  call void @llvm.lifetime.start.p0(i64 4, ptr %9) #9
  store i32 0, ptr %9, align 4, !tbaa !7
  %13 = load ptr, ptr %6, align 8, !tbaa !9
  %14 = icmp eq ptr %13, null
  br i1 %14, label %18, label %15

15:                                               ; preds = %2
  %16 = load ptr, ptr %5, align 8, !tbaa !21
  %17 = icmp eq ptr %16, null
  br i1 %17, label %18, label %19

18:                                               ; preds = %15, %2
  store ptr null, ptr %3, align 8
  store i32 1, ptr %10, align 4
  br label %60

19:                                               ; preds = %15
  %20 = load ptr, ptr %5, align 8, !tbaa !21
  %21 = call i32 @HashSigner(ptr noundef %20)
  store i32 %21, ptr %9, align 4, !tbaa !7
  %22 = load ptr, ptr %6, align 8, !tbaa !9
  %23 = getelementptr inbounds nuw %struct.WOLFSSL_CERT_MANAGER, ptr %22, i32 0, i32 13
  %24 = call i32 @wc_LockMutex(ptr noundef %23)
  %25 = icmp ne i32 %24, 0
  br i1 %25, label %26, label %28

26:                                               ; preds = %19
  %27 = load ptr, ptr %7, align 8, !tbaa !201
  store ptr %27, ptr %3, align 8
  store i32 1, ptr %10, align 4
  br label %60

28:                                               ; preds = %19
  %29 = load ptr, ptr %6, align 8, !tbaa !9
  %30 = getelementptr inbounds nuw %struct.WOLFSSL_CERT_MANAGER, ptr %29, i32 0, i32 0
  %31 = load i32, ptr %9, align 4, !tbaa !7
  %32 = zext i32 %31 to i64
  %33 = getelementptr inbounds nuw [11 x ptr], ptr %30, i64 0, i64 %32
  %34 = load ptr, ptr %33, align 8, !tbaa !201
  store ptr %34, ptr %8, align 8, !tbaa !201
  br label %35

35:                                               ; preds = %54, %28
  %36 = load ptr, ptr %8, align 8, !tbaa !201
  %37 = icmp ne ptr %36, null
  br i1 %37, label %38, label %55

38:                                               ; preds = %35
  call void @llvm.lifetime.start.p0(i64 8, ptr %11) #9
  %39 = load ptr, ptr %8, align 8, !tbaa !201
  %40 = getelementptr inbounds nuw %struct.Signer, ptr %39, i32 0, i32 11
  %41 = getelementptr inbounds [20 x i8], ptr %40, i64 0, i64 0
  store ptr %41, ptr %11, align 8, !tbaa !21
  %42 = load ptr, ptr %5, align 8, !tbaa !21
  %43 = load ptr, ptr %11, align 8, !tbaa !21
  %44 = call i32 @memcmp(ptr noundef %42, ptr noundef %43, i64 noundef 20) #10
  %45 = icmp eq i32 %44, 0
  br i1 %45, label %46, label %48

46:                                               ; preds = %38
  %47 = load ptr, ptr %8, align 8, !tbaa !201
  store ptr %47, ptr %7, align 8, !tbaa !201
  store i32 3, ptr %10, align 4
  br label %52

48:                                               ; preds = %38
  %49 = load ptr, ptr %8, align 8, !tbaa !201
  %50 = getelementptr inbounds nuw %struct.Signer, ptr %49, i32 0, i32 13
  %51 = load ptr, ptr %50, align 8, !tbaa !203
  store ptr %51, ptr %8, align 8, !tbaa !201
  store i32 0, ptr %10, align 4
  br label %52

52:                                               ; preds = %48, %46
  call void @llvm.lifetime.end.p0(i64 8, ptr %11) #9
  %53 = load i32, ptr %10, align 4
  switch i32 %53, label %62 [
    i32 0, label %54
    i32 3, label %55
  ]

54:                                               ; preds = %52
  br label %35, !llvm.loop !207

55:                                               ; preds = %52, %35
  %56 = load ptr, ptr %6, align 8, !tbaa !9
  %57 = getelementptr inbounds nuw %struct.WOLFSSL_CERT_MANAGER, ptr %56, i32 0, i32 13
  %58 = call i32 @wc_UnLockMutex(ptr noundef %57)
  %59 = load ptr, ptr %7, align 8, !tbaa !201
  store ptr %59, ptr %3, align 8
  store i32 1, ptr %10, align 4
  br label %60

60:                                               ; preds = %55, %26, %18
  call void @llvm.lifetime.end.p0(i64 4, ptr %9) #9
  call void @llvm.lifetime.end.p0(i64 8, ptr %8) #9
  call void @llvm.lifetime.end.p0(i64 8, ptr %7) #9
  call void @llvm.lifetime.end.p0(i64 8, ptr %6) #9
  %61 = load ptr, ptr %3, align 8
  ret ptr %61

62:                                               ; preds = %52
  unreachable
}